#include <math.h>
#include <stdio.h>
#include <stdlib.h>
#include <string.h>

int main()
{
	int i,j,n,k=0;
	int e;
	char a[101];
	char b[101];
	gets(a);
	b[0]=a[0];
	for(n=0;a[n]!='\0';n++);
	for(i=1;i<n+1;i++){
		if(a[i]!=' '&&a[i]!='\0'){
			k++;
			b[k]=a[i];
		}
		if((a[i]==' '&&a[i+1]!=' '&&a[i-1]!=' ')||(a[i]==' '&&a[i+1]==' '&&a[i-1]!=' ')){
			k++;
			b[k]=a[i];
		}
		if(a[i]=='\0'){
			k++;
			b[k]=a[i];
		}
	}
	printf("%s",b);
	return 0;
}

