; ModuleID = 'source-C-CXX/25/997.c'
source_filename = "source-C-CXX/25/997.c"
target datalayout = "e-m:e-p270:32:32-p271:32:32-p272:64:64-i64:64-f80:128-n8:16:32:64-S128"
target triple = "x86_64-pc-linux-gnu"

@.str = private unnamed_addr constant [3 x i8] c"%s\00", align 1

; Function Attrs: nounwind sspstrong uwtable
define dso_local i32 @main() local_unnamed_addr #0 {
  %1 = alloca [101 x i8], align 16
  %2 = alloca [101 x i8], align 16
  %3 = getelementptr inbounds [101 x i8], [101 x i8]* %1, i64 0, i64 0
  call void @llvm.lifetime.start.p0i8(i64 101, i8* nonnull %3) #4
  %4 = getelementptr inbounds [101 x i8], [101 x i8]* %2, i64 0, i64 0
  call void @llvm.lifetime.start.p0i8(i64 101, i8* nonnull %4) #4
  %5 = call i32 (i8*, ...) bitcast (i32 (...)* @gets to i32 (i8*, ...)*)(i8* nonnull %3) #4
  %6 = load i8, i8* %3, align 16, !tbaa !5
  store i8 %6, i8* %4, align 16, !tbaa !5
  %7 = icmp eq i8 %6, 0
  br i1 %7, label %14, label %8, !llvm.loop !8

8:                                                ; preds = %0, %8
  %9 = phi i64 [ %13, %8 ], [ 1, %0 ]
  %10 = getelementptr inbounds [101 x i8], [101 x i8]* %1, i64 0, i64 %9
  %11 = load i8, i8* %10, align 1, !tbaa !5
  %12 = icmp eq i8 %11, 0
  %13 = add nuw i64 %9, 1
  br i1 %12, label %14, label %8, !llvm.loop !8

14:                                               ; preds = %8, %0
  %15 = phi i64 [ 0, %0 ], [ %9, %8 ]
  %16 = trunc i64 %15 to i32
  %17 = icmp eq i32 %16, 0
  br i1 %17, label %46, label %18

18:                                               ; preds = %14
  %19 = add i64 %15, 1
  %20 = and i64 %19, 4294967295
  br label %21

21:                                               ; preds = %18, %42
  %22 = phi i64 [ 1, %18 ], [ %44, %42 ]
  %23 = phi i32 [ 0, %18 ], [ %43, %42 ]
  %24 = getelementptr inbounds [101 x i8], [101 x i8]* %1, i64 0, i64 %22
  %25 = load i8, i8* %24, align 1, !tbaa !5
  switch i8 %25, label %26 [
    i8 32, label %30
    i8 0, label %30
  ]

26:                                               ; preds = %21
  %27 = add nsw i32 %23, 1
  %28 = sext i32 %27 to i64
  %29 = getelementptr inbounds [101 x i8], [101 x i8]* %2, i64 0, i64 %28
  store i8 %25, i8* %29, align 1, !tbaa !5
  br label %30

30:                                               ; preds = %21, %21, %26
  %31 = phi i32 [ %27, %26 ], [ %23, %21 ], [ %23, %21 ]
  switch i8 %25, label %42 [
    i8 32, label %32
    i8 0, label %37
  ]

32:                                               ; preds = %30
  %33 = add nsw i64 %22, -1
  %34 = getelementptr inbounds [101 x i8], [101 x i8]* %1, i64 0, i64 %33
  %35 = load i8, i8* %34, align 1, !tbaa !5
  %36 = icmp eq i8 %35, 32
  br i1 %36, label %42, label %37

37:                                               ; preds = %30, %32
  %38 = phi i8 [ 32, %32 ], [ %25, %30 ]
  %39 = add nsw i32 %31, 1
  %40 = sext i32 %39 to i64
  %41 = getelementptr inbounds [101 x i8], [101 x i8]* %2, i64 0, i64 %40
  store i8 %38, i8* %41, align 1, !tbaa !5
  br label %42

42:                                               ; preds = %37, %32, %30
  %43 = phi i32 [ %31, %30 ], [ %31, %32 ], [ %39, %37 ]
  %44 = add nuw nsw i64 %22, 1
  %45 = icmp eq i64 %44, %20
  br i1 %45, label %46, label %21, !llvm.loop !10

46:                                               ; preds = %42, %14
  %47 = call i32 (i8*, ...) @printf(i8* nonnull dereferenceable(1) getelementptr inbounds ([3 x i8], [3 x i8]* @.str, i64 0, i64 0), i8* nonnull %4)
  call void @llvm.lifetime.end.p0i8(i64 101, i8* nonnull %4) #4
  call void @llvm.lifetime.end.p0i8(i64 101, i8* nonnull %3) #4
  ret i32 0
}

; Function Attrs: argmemonly mustprogress nofree nosync nounwind willreturn
declare void @llvm.lifetime.start.p0i8(i64 immarg, i8* nocapture) #1

declare i32 @gets(...) local_unnamed_addr #2

; Function Attrs: nofree nounwind
declare noundef i32 @printf(i8* nocapture noundef readonly, ...) local_unnamed_addr #3

; Function Attrs: argmemonly mustprogress nofree nosync nounwind willreturn
declare void @llvm.lifetime.end.p0i8(i64 immarg, i8* nocapture) #1


!llvm.module.flags = !{!0, !1, !2, !3}
!llvm.ident = !{!4}

!0 = !{i32 1, !"wchar_size", i32 4}
!1 = !{i32 7, !"PIC Level", i32 2}
!2 = !{i32 7, !"PIE Level", i32 2}
!3 = !{i32 7, !"uwtable", i32 1}
!4 = !{!"clang version 13.0.0"}
!5 = !{!6, !6, i64 0}
!6 = !{!"omnipotent char", !7, i64 0}
!7 = !{!"Simple C/C++ TBAA"}
!8 = distinct !{!8, !9}
!9 = !{!"llvm.loop.mustprogress"}
!10 = distinct !{!10, !9}
